Certificate:
    Data:
        Version: 3 (0x2)
        Serial Number: 4098 (0x1002)
    Signature Algorithm: sha256WithRSAEncryption
        Issuer: C=CN, ST=HB, L=WH, O=HUST, OU=CSE, CN=dsy/emailAddress=Shawn_Dai@outlook.com
        Validity
            Not Before: Dec  9 18:12:15 2024 GMT
            Not After : Dec  9 18:12:15 2025 GMT
        Subject: C=CN, ST=HB, O=HUST, OU=CSE, CN=dsy/emailAddress=Shawn_Dai@outlook.com
        Subject Public Key Info:
            Public Key Algorithm: rsaEncryption
                Public-Key: (2048 bit)
                Modulus:
                    00:c3:be:8a:fd:25:67:06:e3:1d:39:e8:f2:53:78:
                    2f:36:a4:28:44:34:81:3e:a4:6f:5a:f1:b0:9f:83:
                    05:1c:c9:76:1e:da:b2:87:6c:08:d6:cd:2b:74:e8:
                    dc:35:a5:ff:b7:6e:89:4c:9c:6a:fa:ed:8e:5f:ae:
                    b7:ce:62:54:48:63:04:a3:f5:74:dc:41:55:2b:d2:
                    a7:90:b9:05:c3:12:81:8a:32:8d:bf:a4:1e:ec:83:
                    98:74:d2:65:5e:aa:b5:0f:19:75:c3:63:b5:e8:b9:
                    5e:6d:f1:4f:c7:c8:d5:c2:44:d0:45:26:1c:32:7c:
                    9c:c5:8e:35:9a:cf:c2:7d:a5:20:50:9e:73:fb:68:
                    7e:1e:4c:c9:44:7e:62:5b:4b:f8:0a:ee:07:a2:be:
                    2e:40:7d:e3:09:98:2c:d4:50:8a:1d:7d:3a:54:13:
                    dd:59:e0:27:d7:6a:54:97:fe:33:16:4e:48:0c:d9:
                    87:3d:d3:a6:be:80:60:35:f7:92:90:9f:b8:f4:15:
                    7e:36:95:df:35:35:ab:a8:32:7c:32:3a:dc:18:cc:
                    f7:fe:60:55:8d:63:4e:9b:f8:ee:9d:79:6c:17:46:
                    27:4c:93:c4:5e:58:75:54:45:09:52:ed:df:aa:ef:
                    a7:af:2a:60:14:e1:cb:91:37:04:55:07:67:1e:c5:
                    7c:c9
                Exponent: 65537 (0x10001)
        X509v3 extensions:
            X509v3 Basic Constraints: 
                CA:FALSE
            Netscape Comment: 
                OpenSSL Generated Certificate
            X509v3 Subject Key Identifier: 
                4B:5F:CA:F0:DD:25:51:A9:89:57:23:5F:FE:F0:A9:30:A2:B1:CD:F1
            X509v3 Authority Key Identifier: 
                keyid:AD:FF:F3:BA:B2:54:47:D5:BC:CC:1A:B2:F3:7C:25:A7:37:FE:A8:AC

    Signature Algorithm: sha256WithRSAEncryption
         99:90:56:eb:08:d2:fd:78:86:af:68:58:09:3a:7c:c9:7a:7c:
         65:04:bd:b9:03:ac:79:8f:35:47:d9:00:03:01:14:cc:c9:80:
         d7:d4:d7:20:7f:e8:de:9b:38:77:2c:0b:f8:bb:db:59:ff:29:
         0f:f6:e6:75:e6:e8:45:c0:16:88:eb:fc:fe:66:96:d2:ba:54:
         16:7b:8a:d6:f8:5b:88:f4:e2:25:78:33:d8:fc:66:bf:46:99:
         1c:87:0e:ae:6e:28:14:cf:d3:66:82:52:9b:ab:e3:15:93:41:
         9e:d0:c8:6b:93:b0:1b:c7:ea:51:17:84:23:e7:6f:60:5d:82:
         e0:2c:a7:8a:45:30:e7:ea:a8:a2:01:43:0c:a5:b5:20:a4:f8:
         05:af:17:dd:e3:f9:4a:02:cf:80:20:7c:6d:56:1d:51:43:ff:
         1d:db:c1:ab:46:7b:56:75:d6:00:d8:e9:bb:23:ca:dd:cf:26:
         1f:5a:c8:4b:2b:69:43:fe:8c:a9:a5:d8:1d:76:06:28:20:fe:
         1a:cc:76:47:d6:10:e3:ce:bb:f8:74:0b:36:3a:8a:f5:14:ed:
         f1:3c:87:94:52:dd:95:19:f2:60:0f:70:5e:1c:a1:89:b8:69:
         84:de:30:e0:12:98:4c:e0:1d:bb:47:bc:cc:82:74:21:ec:d7:
         76:62:e4:76
-----BEGIN CERTIFICATE-----
MIID2jCCAsKgAwIBAgICEAIwDQYJKoZIhvcNAQELBQAweDELMAkGA1UEBhMCQ04x
CzAJBgNVBAgMAkhCMQswCQYDVQQHDAJXSDENMAsGA1UECgwESFVTVDEMMAoGA1UE
CwwDQ1NFMQwwCgYDVQQDDANkc3kxJDAiBgkqhkiG9w0BCQEWFVNoYXduX0RhaUBv
dXRsb29rLmNvbTAeFw0yNDEyMDkxODEyMTVaFw0yNTEyMDkxODEyMTVaMGsxCzAJ
BgNVBAYTAkNOMQswCQYDVQQIDAJIQjENMAsGA1UECgwESFVTVDEMMAoGA1UECwwD
Q1NFMQwwCgYDVQQDDANkc3kxJDAiBgkqhkiG9w0BCQEWFVNoYXduX0RhaUBvdXRs
b29rLmNvbTCCASIwDQYJKoZIhvcNAQEBBQADggEPADCCAQoCggEBAMO+iv0lZwbj
HTno8lN4LzakKEQ0gT6kb1rxsJ+DBRzJdh7asodsCNbNK3To3DWl/7duiUycavrt
jl+ut85iVEhjBKP1dNxBVSvSp5C5BcMSgYoyjb+kHuyDmHTSZV6qtQ8ZdcNjtei5
Xm3xT8fI1cJE0EUmHDJ8nMWONZrPwn2lIFCec/tofh5MyUR+YltL+AruB6K+LkB9
4wmYLNRQih19OlQT3VngJ9dqVJf+MxZOSAzZhz3Tpr6AYDX3kpCfuPQVfjaV3zU1
q6gyfDI63BjM9/5gVY1jTpv47p15bBdGJ0yTxF5YdVRFCVLt36rvp68qYBThy5E3
BFUHZx7FfMkCAwEAAaN7MHkwCQYDVR0TBAIwADAsBglghkgBhvhCAQ0EHxYdT3Bl
blNTTCBHZW5lcmF0ZWQgQ2VydGlmaWNhdGUwHQYDVR0OBBYEFEtfyvDdJVGpiVcj
X/7wqTCisc3xMB8GA1UdIwQYMBaAFK3/87qyVEfVvMwasvN8Jac3/qisMA0GCSqG
SIb3DQEBCwUAA4IBAQCZkFbrCNL9eIavaFgJOnzJenxlBL25A6x5jzVH2QADARTM
yYDX1Ncgf+jemzh3LAv4u9tZ/ykP9uZ15uhFwBaI6/z+ZpbSulQWe4rW+FuI9OIl
eDPY/Ga/Rpkchw6ubigUz9NmglKbq+MVk0Ge0Mhrk7Abx+pRF4Qj529gXYLgLKeK
RTDn6qiiAUMMpbUgpPgFrxfd4/lKAs+AIHxtVh1RQ/8d28GrRntWddYA2Om7I8rd
zyYfWshLK2lD/oyppdgddgYoIP4azHZH1hDjzrv4dAs2Oor1FO3xPIeUUt2VGfJg
D3BeHKGJuGmE3jDgEphM4B27R7zMgnQh7Nd2YuR2
-----END CERTIFICATE-----
