Certificate:
    Data:
        Version: 3 (0x2)
        Serial Number: 4097 (0x1001)
    Signature Algorithm: sha256WithRSAEncryption
        Issuer: C=CN, ST=HB, L=WH, O=HUST, OU=CSE, CN=dsy/emailAddress=Shawn_Dai@outlook.com
        Validity
            Not Before: Dec  9 17:58:36 2024 GMT
            Not After : Dec  9 17:58:36 2025 GMT
        Subject: C=CN, ST=HB, O=HUST, OU=CSE, CN=dsy/emailAddress=Shawn_Dai@outlook.com
        Subject Public Key Info:
            Public Key Algorithm: rsaEncryption
                Public-Key: (2048 bit)
                Modulus:
                    00:bb:dd:6a:25:87:79:c9:ef:d0:f3:c5:c9:b3:c2:
                    b7:9e:ac:a4:cf:f2:b7:ac:67:bf:5e:17:07:b7:2f:
                    26:a5:8c:52:4c:9b:43:db:aa:3e:d6:46:bc:a4:45:
                    b2:a2:c3:a3:dd:ae:c2:e7:fa:58:e2:16:06:86:4e:
                    9b:15:a4:6f:cf:b3:04:75:59:73:0a:d5:2d:49:7a:
                    1b:47:95:63:09:69:fe:ef:e3:81:0c:cc:1b:18:d6:
                    5e:6b:6a:2a:68:a5:b4:13:c6:f7:99:9d:29:5d:b0:
                    5e:ef:12:f9:02:15:91:4e:35:46:92:62:b7:44:39:
                    95:cf:de:6d:74:2e:ec:cf:93:5a:55:e6:bc:bd:bf:
                    65:48:63:45:d7:f1:5f:fe:1d:e7:35:20:e3:23:aa:
                    f4:b2:89:ca:b5:6d:c4:58:38:9b:1d:4d:c3:4b:54:
                    b6:57:ad:c8:b5:63:14:2c:c9:cf:41:51:6a:c9:d0:
                    18:c5:b0:77:5a:b5:e7:5c:a0:07:99:1f:48:d8:fb:
                    3b:31:13:68:80:cb:f4:cf:59:49:cf:e6:e0:92:0a:
                    a0:60:07:37:b0:98:82:77:45:96:bc:b9:48:f9:c9:
                    49:3a:63:af:a7:5e:ad:e8:08:a0:2c:c4:08:b1:b8:
                    8e:f1:b1:0e:a3:1c:c4:04:fe:0b:1a:e5:7b:49:e6:
                    2e:e5
                Exponent: 65537 (0x10001)
        X509v3 extensions:
            X509v3 Basic Constraints: 
                CA:FALSE
            Netscape Comment: 
                OpenSSL Generated Certificate
            X509v3 Subject Key Identifier: 
                56:08:44:44:79:5D:DC:6E:BF:50:D3:6F:A8:F8:F5:E1:A1:31:41:B9
            X509v3 Authority Key Identifier: 
                keyid:AD:FF:F3:BA:B2:54:47:D5:BC:CC:1A:B2:F3:7C:25:A7:37:FE:A8:AC

    Signature Algorithm: sha256WithRSAEncryption
         20:99:8d:43:70:97:40:ea:82:57:fa:55:98:35:03:39:7c:11:
         a2:a6:54:20:a0:57:c1:f5:0a:fb:3e:ef:53:eb:52:69:4d:c0:
         93:3c:eb:2d:85:34:a2:65:b9:61:42:16:c3:74:86:d7:40:36:
         b6:3b:cb:c9:6a:1d:8c:14:f3:73:c1:0e:86:2e:cd:be:d5:f8:
         7c:d7:d8:5d:3a:95:d2:6b:56:e2:62:69:ef:24:10:18:e9:9c:
         b4:0b:43:b0:2c:3f:50:4b:51:2e:6d:e7:37:72:48:1d:80:54:
         88:a3:4f:78:56:cf:3d:f4:9d:01:db:e5:33:51:9c:a5:07:75:
         8a:04:b8:f7:8b:27:cc:45:00:43:f8:68:1a:8f:f8:5a:53:91:
         8a:5c:ca:75:60:e9:65:a9:7c:86:17:3b:64:b0:fa:88:fa:1b:
         48:ba:e5:14:42:06:a9:b3:4c:07:03:72:c8:5d:fb:d2:fd:2f:
         91:4b:5e:67:54:0b:b3:0c:ed:20:18:37:12:d5:44:73:8e:c0:
         48:8e:7f:02:b4:85:13:8d:5c:64:cb:3c:f4:55:22:d0:5c:b5:
         4c:2c:ef:e1:e6:64:95:92:a1:29:b7:41:8d:96:e7:33:2c:0b:
         d4:9a:33:47:6b:ee:45:98:e4:65:b3:29:27:0d:7a:9f:05:c3:
         85:c7:3d:c4
-----BEGIN CERTIFICATE-----
MIID2jCCAsKgAwIBAgICEAEwDQYJKoZIhvcNAQELBQAweDELMAkGA1UEBhMCQ04x
CzAJBgNVBAgMAkhCMQswCQYDVQQHDAJXSDENMAsGA1UECgwESFVTVDEMMAoGA1UE
CwwDQ1NFMQwwCgYDVQQDDANkc3kxJDAiBgkqhkiG9w0BCQEWFVNoYXduX0RhaUBv
dXRsb29rLmNvbTAeFw0yNDEyMDkxNzU4MzZaFw0yNTEyMDkxNzU4MzZaMGsxCzAJ
BgNVBAYTAkNOMQswCQYDVQQIDAJIQjENMAsGA1UECgwESFVTVDEMMAoGA1UECwwD
Q1NFMQwwCgYDVQQDDANkc3kxJDAiBgkqhkiG9w0BCQEWFVNoYXduX0RhaUBvdXRs
b29rLmNvbTCCASIwDQYJKoZIhvcNAQEBBQADggEPADCCAQoCggEBALvdaiWHecnv
0PPFybPCt56spM/yt6xnv14XB7cvJqWMUkybQ9uqPtZGvKRFsqLDo92uwuf6WOIW
BoZOmxWkb8+zBHVZcwrVLUl6G0eVYwlp/u/jgQzMGxjWXmtqKmiltBPG95mdKV2w
Xu8S+QIVkU41RpJit0Q5lc/ebXQu7M+TWlXmvL2/ZUhjRdfxX/4d5zUg4yOq9LKJ
yrVtxFg4mx1Nw0tUtletyLVjFCzJz0FRasnQGMWwd1q151ygB5kfSNj7OzETaIDL
9M9ZSc/m4JIKoGAHN7CYgndFlry5SPnJSTpjr6deregIoCzECLG4jvGxDqMcxAT+
Cxrle0nmLuUCAwEAAaN7MHkwCQYDVR0TBAIwADAsBglghkgBhvhCAQ0EHxYdT3Bl
blNTTCBHZW5lcmF0ZWQgQ2VydGlmaWNhdGUwHQYDVR0OBBYEFFYIRER5Xdxuv1DT
b6j49eGhMUG5MB8GA1UdIwQYMBaAFK3/87qyVEfVvMwasvN8Jac3/qisMA0GCSqG
SIb3DQEBCwUAA4IBAQAgmY1DcJdA6oJX+lWYNQM5fBGiplQgoFfB9Qr7Pu9T61Jp
TcCTPOsthTSiZblhQhbDdIbXQDa2O8vJah2MFPNzwQ6GLs2+1fh819hdOpXSa1bi
YmnvJBAY6Zy0C0OwLD9QS1Eubec3ckgdgFSIo094Vs899J0B2+UzUZylB3WKBLj3
iyfMRQBD+Ggaj/haU5GKXMp1YOllqXyGFztksPqI+htIuuUUQgaps0wHA3LIXfvS
/S+RS15nVAuzDO0gGDcS1URzjsBIjn8CtIUTjVxkyzz0VSLQXLVMLO/h5mSVkqEp
t0GNluczLAvUmjNHa+5FmORlsyknDXqfBcOFxz3E
-----END CERTIFICATE-----
